; Function Attrs: mustprogress nofree norecurse nosync nounwind willreturn memory(none) uwtable
define i32 @ossl_ml_dsa_key_compress_low_bits(i32 noundef %0, i32 noundef %1) local_unnamed_addr #1 {
  %3 = add i32 %0, 127
  %4 = lshr i32 %3, 7
  %5 = icmp eq i32 %1, 261888
  br i1 %5, label %6, label %11

6:                                                ; preds = %2
  %7 = mul nuw nsw i32 %4, 1025
  %8 = add nuw nsw i32 %7, 2097152
  %9 = lshr i32 %8, 22
  %10 = and i32 %9, 15
  br label %ossl_ml_dsa_key_compress_decompose.exit

11:                                               ; preds = %2
  %12 = mul nuw nsw i32 %4, 11275
  %13 = add nuw nsw i32 %12, 8388608
  %14 = lshr i32 %13, 24
  %15 = icmp ugt i32 %3, 8285311
  %16 = select i1 %15, i32 0, i32 %14
  br label %ossl_ml_dsa_key_compress_decompose.exit

ossl_ml_dsa_key_compress_decompose.exit:          ; preds = %6, %11
  %.0.i.i = phi i32 [ %10, %6 ], [ %16, %11 ]
  %17 = shl i32 %1, 1
  %18 = mul i32 %17, %.0.i.i
  %19 = sub i32 %0, %18
  %20 = icmp sgt i32 %19, 4190208
  %.neg.i = select i1 %20, i32 -8380417, i32 0
  %21 = add i32 %.neg.i, %19
  ret i32 %21
}